; Function Attrs: mustprogress uwtable
define void @_ZN5arrow8internal9FileCloseEi(ptr dead_on_unwind noalias writable sret(%"class.arrow::Status") align 8 %0, i32 noundef %1) local_unnamed_addr #3 {
  %3 = tail call i32 @close(i32 noundef %1)
  %4 = icmp eq i32 %3, -1
  br i1 %4, label %5, label %6

5:                                                ; preds = %2
  tail call void @_ZN5arrow6Status8FromArgsIJRA19_KcEEES0_NS_10StatusCodeEDpOT_(ptr dead_on_unwind writable sret(%"class.arrow::Status") align 8 %0, i8 noundef signext 5, ptr noundef nonnull align 1 dereferenceable(19) @.str.15)
  br label %7

6:                                                ; preds = %2
  store ptr null, ptr %0, align 8, !tbaa !89, !alias.scope !313
  br label %7

7:                                                ; preds = %6, %5
  ret void
}